; Function Attrs: mustprogress nofree norecurse nosync nounwind willreturn memory(argmem: read) uwtable
define hidden noundef i32 @_ZNK15static_features12num_theoriesEv(ptr nocapture noundef nonnull readonly align 8 dereferenceable(792) %this) local_unnamed_addr #5 align 2 {
entry:
  %m_num_theories.i = getelementptr inbounds i8, ptr %this, i64 744
  %0 = load i32, ptr %m_num_theories.i, align 8
  %m_num_uninterpreted_functions.i = getelementptr inbounds i8, ptr %this, i64 508
  %1 = load i32, ptr %m_num_uninterpreted_functions.i, align 4
  %cmp.i = icmp ne i32 %1, 0
  %cond = zext i1 %cmp.i to i32
  %add = add i32 %0, %cond
  ret i32 %add
}